target datalayout = "e-m:e-p270:32:32-p271:32:32-p272:64:64-i64:64-i128:128-f80:128-n8:16:32:64-S128"
target triple = "x86_64-unknown-linux-gnu"

%"class.Assimp::MD5Importer" = type <{ %"class.Assimp::BaseImporter", ptr, %"class.std::__cxx11::basic_string", ptr, i32, i32, ptr, i8, i8, i8, i8, [4 x i8] }>
%"class.Assimp::BaseImporter" = type { ptr, double, double, %"class.std::__cxx11::basic_string", %"class.std::__exception_ptr::exception_ptr", ptr }
%"class.std::__exception_ptr::exception_ptr" = type { ptr }
%"class.std::__cxx11::basic_string" = type { %"struct.std::__cxx11::basic_string<char>::_Alloc_hider", i64, %union.anon }
%"struct.std::__cxx11::basic_string<char>::_Alloc_hider" = type { ptr }
%union.anon = type { i64, [8 x i8] }

; Function Attrs: mustprogress nounwind uwtable
define hidden void @_ZN6Assimp11MD5ImporterC2Ev(ptr noundef nonnull align 8 dereferenceable(140) %this) unnamed_addr #0 align 2 {
entry:
  %this.addr = alloca ptr, align 8
  store ptr %this, ptr %this.addr, align 8
  %this1 = load ptr, ptr %this.addr, align 8
  call void @_ZN6Assimp12BaseImporterC2Ev(ptr noundef nonnull align 8 dereferenceable(72) %this1) #15
  store ptr getelementptr inbounds ({ [8 x ptr] }, ptr @_ZTVN6Assimp11MD5ImporterE, i32 0, i32 0, i32 2), ptr %this1, align 8
  %mIOHandler = getelementptr inbounds %"class.Assimp::MD5Importer", ptr %this1, i32 0, i32 1
  store ptr null, ptr %mIOHandler, align 8
  %mFile = getelementptr inbounds %"class.Assimp::MD5Importer", ptr %this1, i32 0, i32 2
  call void @_ZNSt7__cxx1112basic_stringIcSt11char_traitsIcESaIcEEC1Ev(ptr noundef nonnull align 8 dereferenceable(32) %mFile) #15
  %mBuffer = getelementptr inbounds %"class.Assimp::MD5Importer", ptr %this1, i32 0, i32 3
  store ptr null, ptr %mBuffer, align 8
  %mFileSize = getelementptr inbounds %"class.Assimp::MD5Importer", ptr %this1, i32 0, i32 4
  store i32 0, ptr %mFileSize, align 8
  %mLineNumber = getelementptr inbounds %"class.Assimp::MD5Importer", ptr %this1, i32 0, i32 5
  store i32 0, ptr %mLineNumber, align 4
  %mScene = getelementptr inbounds %"class.Assimp::MD5Importer", ptr %this1, i32 0, i32 6
  store ptr null, ptr %mScene, align 8
  %mHadMD5Mesh = getelementptr inbounds %"class.Assimp::MD5Importer", ptr %this1, i32 0, i32 7
  store i8 0, ptr %mHadMD5Mesh, align 8
  %mHadMD5Anim = getelementptr inbounds %"class.Assimp::MD5Importer", ptr %this1, i32 0, i32 8
  store i8 0, ptr %mHadMD5Anim, align 1
  %mHadMD5Camera = getelementptr inbounds %"class.Assimp::MD5Importer", ptr %this1, i32 0, i32 9
  store i8 0, ptr %mHadMD5Camera, align 2
  %mCconfigNoAutoLoad = getelementptr inbounds %"class.Assimp::MD5Importer", ptr %this1, i32 0, i32 10
  store i8 0, ptr %mCconfigNoAutoLoad, align 1
  ret void
}