; Function Attrs: mustprogress nounwind uwtable
define hidden void @_ZN6Assimp11MD5ImporterC2Ev(ptr noundef nonnull align 8 dereferenceable(140) %this) unnamed_addr #0 align 2 {
entry:
  tail call void @_ZN6Assimp12BaseImporterC2Ev(ptr noundef nonnull align 8 dereferenceable(72) %this) #20
  store ptr getelementptr inbounds ({ [8 x ptr] }, ptr @_ZTVN6Assimp11MD5ImporterE, i64 0, i32 0, i64 2), ptr %this, align 8
  %mIOHandler = getelementptr inbounds i8, ptr %this, i64 72
  store ptr null, ptr %mIOHandler, align 8
  %mFile = getelementptr inbounds i8, ptr %this, i64 80
  tail call void @_ZNSt7__cxx1112basic_stringIcSt11char_traitsIcESaIcEEC1Ev(ptr noundef nonnull align 8 dereferenceable(32) %mFile) #20
  %mBuffer = getelementptr inbounds i8, ptr %this, i64 112
  tail call void @llvm.memset.p0.i64(ptr noundef nonnull align 8 dereferenceable(28) %mBuffer, i8 0, i64 28, i1 false)
  ret void
}